target datalayout = "e-m:e-p270:32:32-p271:32:32-p272:64:64-i64:64-i128:128-f80:128-n8:16:32:64-S128"
target triple = "x86_64-pc-linux-gnu"

%struct.Curl_easy = type { i32, i64, i64, ptr, %struct.Curl_llist_node, %struct.Curl_llist_node, i32, i32, %struct.Curl_message, %struct.easy_pollset, %struct.Names, ptr, ptr, ptr, ptr, %struct.SingleRequest, %struct.UserDefined, ptr, ptr, ptr, %struct.Progress, %struct.UrlState, ptr, %struct.PureInfo, %struct.curl_tlssessioninfo }
%struct.Curl_llist_node = type { ptr, ptr, ptr, ptr }
%struct.Curl_message = type { %struct.Curl_llist_node, %struct.CURLMsg }
%struct.CURLMsg = type { i32, ptr, %union.anon }
%union.anon = type { ptr }
%struct.easy_pollset = type { [5 x i32], i32, [5 x i8] }
%struct.Names = type { ptr, i32 }
%struct.SingleRequest = type <{ i64, i64, i64, i64, %struct.curltime, i32, i32, i32, i32, i64, i32, i32, i8, i8, [2 x i8], i32, ptr, ptr, %struct.bufq, i64, i64, ptr, ptr, %union.anon.0, ptr, i8, i32, [3 x i8] }>
%struct.curltime = type { i64, i32 }
%struct.bufq = type { ptr, ptr, ptr, ptr, i64, i64, i64, i32 }
%union.anon.0 = type { ptr }
%struct.UserDefined = type <{ ptr, ptr, ptr, ptr, ptr, ptr, i64, i64, i64, ptr, ptr, i64, ptr, ptr, ptr, ptr, ptr, ptr, ptr, ptr, ptr, ptr, ptr, ptr, ptr, ptr, ptr, ptr, ptr, ptr, ptr, ptr, ptr, ptr, ptr, i64, i64, i64, i64, i64, i64, i64, i64, i64, ptr, ptr, %struct.curl_mimepart, ptr, ptr, ptr, i64, %struct.ssl_config_data, %struct.ssl_config_data, ptr, i16, i8, i8, %struct.ssl_general_config, i32, i32, i32, [4 x i8], ptr, ptr, i64, i32, i8, i8, i8, i8, ptr, ptr, ptr, i32, [4 x i8], [74 x ptr], [8 x ptr], i32, i32, i32, [4 x i8], ptr, i32, [4 x i8], ptr, ptr, ptr, ptr, ptr, i32, i32, i32, i32, i32, i32, i32, i32, i64, ptr, ptr, i64, ptr, i64, ptr, ptr, ptr, ptr, i32, i16, i16, i16, i8, i8, i8, i8, i8, i8, i8, i8, i64, [6 x i8] }>
%struct.curl_mimepart = type { ptr, ptr, i32, i32, ptr, ptr, ptr, ptr, ptr, ptr, ptr, ptr, ptr, ptr, ptr, i64, %struct.mime_state, ptr, %struct.mime_encoder_state, i64 }
%struct.mime_state = type { i32, ptr, i64 }
%struct.mime_encoder_state = type { i64, i64, i64, [256 x i8] }
%struct.ssl_config_data = type { %struct.ssl_primary_config, i64, ptr, ptr, ptr, ptr, ptr, ptr, ptr, i16 }
%struct.ssl_primary_config = type { ptr, ptr, ptr, ptr, ptr, ptr, ptr, ptr, ptr, ptr, ptr, ptr, ptr, ptr, i8, i32, i8, i8 }
%struct.ssl_general_config = type { i32 }
%struct.Progress = type { i64, %struct.pgrs_dir, %struct.pgrs_dir, i64, i64, i32, i32, i64, i64, i64, i64, i64, i64, i64, i64, i64, %struct.curltime, %struct.curltime, %struct.curltime, %struct.curltime, %struct.curltime, [6 x i64], [6 x %struct.curltime], i32, i8 }
%struct.pgrs_dir = type { i64, i64, i64, %struct.pgrs_measure }
%struct.pgrs_measure = type { %struct.curltime, i64 }
%struct.UrlState = type { %struct.curltime, i64, i64, %struct.dynbuf, ptr, i64, ptr, i32, i32, i32, ptr, i32, i64, i32, ptr, %struct.digestdata, %struct.digestdata, %struct.auth, %struct.auth, %struct.Curl_async, ptr, i8, %struct.curltime, %struct.Curl_tree, %struct.Curl_llist, [15 x %struct.time_node], ptr, ptr, i64, i64, i64, i64, [32 x i8], i64, ptr, ptr, ptr, %struct.urlpieces, ptr, ptr, ptr, ptr, ptr, i64, %struct.dynbuf, %struct.Curl_llist, [2 x %struct.curl_header], ptr, i32, ptr, ptr, %struct.store_netrc, %struct.dynamically_allocated_data, i8, i8, i8, i8, i32 }
%struct.digestdata = type { ptr, ptr, ptr, ptr, ptr, ptr, i32, i8, i8 }
%struct.auth = type { i64, i64, i64, i8 }
%struct.Curl_async = type { ptr, ptr, ptr, ptr, i32, i32, i8 }
%struct.Curl_tree = type { ptr, ptr, ptr, ptr, %struct.curltime, ptr }
%struct.time_node = type { %struct.Curl_llist_node, %struct.curltime, i32 }
%struct.urlpieces = type { ptr, ptr, ptr, ptr, ptr, ptr, ptr, ptr }
%struct.dynbuf = type { ptr, i64, i64, i64 }
%struct.Curl_llist = type { ptr, ptr, ptr, i64 }
%struct.curl_header = type { ptr, ptr, i64, i64, i32, ptr }
%struct.store_netrc = type { %struct.dynbuf, ptr, i8 }
%struct.dynamically_allocated_data = type { ptr, ptr, ptr, ptr, ptr, ptr, ptr, ptr, ptr, ptr, ptr, ptr, ptr, ptr }
%struct.PureInfo = type { i32, i32, i32, i64, i64, i64, i64, i64, i64, i64, ptr, ptr, i64, i32, %struct.ip_quadruple, i32, ptr, i32, %struct.curl_certinfo, i32, i8 }
%struct.ip_quadruple = type { [46 x i8], [46 x i8], i32, i32 }
%struct.curl_certinfo = type { i32, ptr }
%struct.curl_tlssessioninfo = type { i32, ptr }

@Curl_cfree = external global ptr, align 8

; Function Attrs: nounwind uwtable
define hidden i32 @Curl_initinfo(ptr noundef %0) #0 {
  %2 = alloca ptr, align 8
  %3 = alloca ptr, align 8
  %4 = alloca ptr, align 8
  store ptr %0, ptr %2, align 8, !tbaa !3
  call void @llvm.lifetime.start.p0(i64 8, ptr %3) #5
  %5 = load ptr, ptr %2, align 8, !tbaa !3
  %6 = getelementptr inbounds nuw %struct.Curl_easy, ptr %5, i32 0, i32 20
  store ptr %6, ptr %3, align 8, !tbaa !8
  call void @llvm.lifetime.start.p0(i64 8, ptr %4) #5
  %7 = load ptr, ptr %2, align 8, !tbaa !3
  %8 = getelementptr inbounds nuw %struct.Curl_easy, ptr %7, i32 0, i32 23
  store ptr %8, ptr %4, align 8, !tbaa !10
  %9 = load ptr, ptr %3, align 8, !tbaa !8
  %10 = getelementptr inbounds nuw %struct.Progress, ptr %9, i32 0, i32 9
  store i64 0, ptr %10, align 8, !tbaa !12
  %11 = load ptr, ptr %3, align 8, !tbaa !8
  %12 = getelementptr inbounds nuw %struct.Progress, ptr %11, i32 0, i32 10
  store i64 0, ptr %12, align 8, !tbaa !19
  %13 = load ptr, ptr %3, align 8, !tbaa !8
  %14 = getelementptr inbounds nuw %struct.Progress, ptr %13, i32 0, i32 11
  store i64 0, ptr %14, align 8, !tbaa !20
  %15 = load ptr, ptr %3, align 8, !tbaa !8
  %16 = getelementptr inbounds nuw %struct.Progress, ptr %15, i32 0, i32 12
  store i64 0, ptr %16, align 8, !tbaa !21
  %17 = load ptr, ptr %3, align 8, !tbaa !8
  %18 = getelementptr inbounds nuw %struct.Progress, ptr %17, i32 0, i32 13
  store i64 0, ptr %18, align 8, !tbaa !22
  %19 = load ptr, ptr %3, align 8, !tbaa !8
  %20 = getelementptr inbounds nuw %struct.Progress, ptr %19, i32 0, i32 14
  store i64 0, ptr %20, align 8, !tbaa !23
  %21 = load ptr, ptr %3, align 8, !tbaa !8
  %22 = getelementptr inbounds nuw %struct.Progress, ptr %21, i32 0, i32 7
  store i64 0, ptr %22, align 8, !tbaa !24
  %23 = load ptr, ptr %3, align 8, !tbaa !8
  %24 = getelementptr inbounds nuw %struct.Progress, ptr %23, i32 0, i32 15
  store i64 0, ptr %24, align 8, !tbaa !25
  %25 = load ptr, ptr %3, align 8, !tbaa !8
  %26 = getelementptr inbounds nuw %struct.Progress, ptr %25, i32 0, i32 24
  %27 = load i8, ptr %26, align 4
  %28 = and i8 %27, -3
  %29 = or i8 %28, 0
  store i8 %29, ptr %26, align 4
  %30 = load ptr, ptr %4, align 8, !tbaa !10
  %31 = getelementptr inbounds nuw %struct.PureInfo, ptr %30, i32 0, i32 0
  store i32 0, ptr %31, align 8, !tbaa !26
  %32 = load ptr, ptr %4, align 8, !tbaa !10
  %33 = getelementptr inbounds nuw %struct.PureInfo, ptr %32, i32 0, i32 1
  store i32 0, ptr %33, align 4, !tbaa !32
  %34 = load ptr, ptr %4, align 8, !tbaa !10
  %35 = getelementptr inbounds nuw %struct.PureInfo, ptr %34, i32 0, i32 2
  store i32 0, ptr %35, align 8, !tbaa !33
  %36 = load ptr, ptr %4, align 8, !tbaa !10
  %37 = getelementptr inbounds nuw %struct.PureInfo, ptr %36, i32 0, i32 3
  store i64 -1, ptr %37, align 8, !tbaa !34
  %38 = load ptr, ptr %4, align 8, !tbaa !10
  %39 = getelementptr inbounds nuw %struct.PureInfo, ptr %38, i32 0, i32 20
  %40 = load i8, ptr %39, align 4
  %41 = and i8 %40, -2
  %42 = or i8 %41, 0
  store i8 %42, ptr %39, align 4
  %43 = load ptr, ptr %4, align 8, !tbaa !10
  %44 = getelementptr inbounds nuw %struct.PureInfo, ptr %43, i32 0, i32 13
  store i32 0, ptr %44, align 8, !tbaa !35
  %45 = load ptr, ptr %4, align 8, !tbaa !10
  %46 = getelementptr inbounds nuw %struct.PureInfo, ptr %45, i32 0, i32 4
  store i64 0, ptr %46, align 8, !tbaa !36
  %47 = load ptr, ptr %4, align 8, !tbaa !10
  %48 = getelementptr inbounds nuw %struct.PureInfo, ptr %47, i32 0, i32 5
  store i64 0, ptr %48, align 8, !tbaa !37
  %49 = load ptr, ptr %4, align 8, !tbaa !10
  %50 = getelementptr inbounds nuw %struct.PureInfo, ptr %49, i32 0, i32 6
  store i64 0, ptr %50, align 8, !tbaa !38
  %51 = load ptr, ptr %4, align 8, !tbaa !10
  %52 = getelementptr inbounds nuw %struct.PureInfo, ptr %51, i32 0, i32 7
  store i64 0, ptr %52, align 8, !tbaa !39
  %53 = load ptr, ptr %4, align 8, !tbaa !10
  %54 = getelementptr inbounds nuw %struct.PureInfo, ptr %53, i32 0, i32 8
  store i64 0, ptr %54, align 8, !tbaa !40
  %55 = load ptr, ptr %4, align 8, !tbaa !10
  %56 = getelementptr inbounds nuw %struct.PureInfo, ptr %55, i32 0, i32 9
  store i64 0, ptr %56, align 8, !tbaa !41
  %57 = load ptr, ptr @Curl_cfree, align 8, !tbaa !42
  %58 = load ptr, ptr %4, align 8, !tbaa !10
  %59 = getelementptr inbounds nuw %struct.PureInfo, ptr %58, i32 0, i32 10
  %60 = load ptr, ptr %59, align 8, !tbaa !43
  call void %57(ptr noundef %60)
  %61 = load ptr, ptr %4, align 8, !tbaa !10
  %62 = getelementptr inbounds nuw %struct.PureInfo, ptr %61, i32 0, i32 10
  store ptr null, ptr %62, align 8, !tbaa !43
  %63 = load ptr, ptr @Curl_cfree, align 8, !tbaa !42
  %64 = load ptr, ptr %4, align 8, !tbaa !10
  %65 = getelementptr inbounds nuw %struct.PureInfo, ptr %64, i32 0, i32 11
  %66 = load ptr, ptr %65, align 8, !tbaa !44
  call void %63(ptr noundef %66)
  %67 = load ptr, ptr %4, align 8, !tbaa !10
  %68 = getelementptr inbounds nuw %struct.PureInfo, ptr %67, i32 0, i32 11
  store ptr null, ptr %68, align 8, !tbaa !44
  %69 = load ptr, ptr %4, align 8, !tbaa !10
  %70 = getelementptr inbounds nuw %struct.PureInfo, ptr %69, i32 0, i32 14
  call void @llvm.memset.p0.i64(ptr align 4 %70, i8 0, i64 100, i1 false)
  %71 = load ptr, ptr %4, align 8, !tbaa !10
  %72 = getelementptr inbounds nuw %struct.PureInfo, ptr %71, i32 0, i32 14
  %73 = getelementptr inbounds nuw %struct.ip_quadruple, ptr %72, i32 0, i32 2
  store i32 -1, ptr %73, align 4, !tbaa !45
  %74 = load ptr, ptr %4, align 8, !tbaa !10
  %75 = getelementptr inbounds nuw %struct.PureInfo, ptr %74, i32 0, i32 14
  %76 = getelementptr inbounds nuw %struct.ip_quadruple, ptr %75, i32 0, i32 3
  store i32 -1, ptr %76, align 4, !tbaa !46
  %77 = load ptr, ptr %4, align 8, !tbaa !10
  %78 = getelementptr inbounds nuw %struct.PureInfo, ptr %77, i32 0, i32 12
  store i64 0, ptr %78, align 8, !tbaa !47
  %79 = load ptr, ptr %4, align 8, !tbaa !10
  %80 = getelementptr inbounds nuw %struct.PureInfo, ptr %79, i32 0, i32 16
  store ptr null, ptr %80, align 8, !tbaa !48
  %81 = load ptr, ptr %4, align 8, !tbaa !10
  %82 = getelementptr inbounds nuw %struct.PureInfo, ptr %81, i32 0, i32 17
  store i32 0, ptr %82, align 8, !tbaa !49
  %83 = load ptr, ptr %2, align 8, !tbaa !3
  call void @Curl_ssl_free_certinfo(ptr noundef %83)
  call void @llvm.lifetime.end.p0(i64 8, ptr %4) #5
  call void @llvm.lifetime.end.p0(i64 8, ptr %3) #5
  ret i32 0
}