; Function Attrs: nounwind uwtable
define hidden noundef i32 @Curl_initinfo(ptr noundef initializes((2824, 2832), (2840, 2896), (5048, 5060), (5064, 5120), (5136, 5248), (5256, 5268)) %0) local_unnamed_addr #0 {
  %2 = getelementptr inbounds nuw i8, ptr %0, i64 5048
  %3 = getelementptr inbounds nuw i8, ptr %0, i64 2840
  %4 = getelementptr inbounds nuw i8, ptr %0, i64 2824
  store i64 0, ptr %4, align 8, !tbaa !3
  %5 = getelementptr inbounds nuw i8, ptr %0, i64 3124
  tail call void @llvm.memset.p0.i64(ptr noundef nonnull align 8 dereferenceable(56) %3, i8 0, i64 56, i1 false)
  %6 = load i8, ptr %5, align 4
  %7 = and i8 %6, -3
  store i8 %7, ptr %5, align 4
  store i32 0, ptr %2, align 8, !tbaa !12
  %8 = getelementptr inbounds nuw i8, ptr %0, i64 5052
  store i32 0, ptr %8, align 4, !tbaa !19
  %9 = getelementptr inbounds nuw i8, ptr %0, i64 5056
  store i32 0, ptr %9, align 8, !tbaa !20
  %10 = getelementptr inbounds nuw i8, ptr %0, i64 5064
  store i64 -1, ptr %10, align 8, !tbaa !21
  %11 = getelementptr inbounds nuw i8, ptr %0, i64 5292
  %12 = load i8, ptr %11, align 4
  %13 = and i8 %12, -2
  store i8 %13, ptr %11, align 4
  %14 = getelementptr inbounds nuw i8, ptr %0, i64 5144
  store i32 0, ptr %14, align 8, !tbaa !22
  %15 = getelementptr inbounds nuw i8, ptr %0, i64 5072
  tail call void @llvm.memset.p0.i64(ptr noundef nonnull align 8 dereferenceable(48) %15, i8 0, i64 48, i1 false)
  %16 = load ptr, ptr @Curl_cfree, align 8, !tbaa !23
  %17 = getelementptr inbounds nuw i8, ptr %0, i64 5120
  %18 = load ptr, ptr %17, align 8, !tbaa !24
  tail call void %16(ptr noundef %18) #5
  store ptr null, ptr %17, align 8, !tbaa !24
  %19 = load ptr, ptr @Curl_cfree, align 8, !tbaa !23
  %20 = getelementptr inbounds nuw i8, ptr %0, i64 5128
  %21 = load ptr, ptr %20, align 8, !tbaa !25
  tail call void %19(ptr noundef %21) #5
  store ptr null, ptr %20, align 8, !tbaa !25
  %22 = getelementptr inbounds nuw i8, ptr %0, i64 5148
  tail call void @llvm.memset.p0.i64(ptr noundef nonnull align 4 dereferenceable(100) %22, i8 0, i64 92, i1 false)
  %23 = getelementptr inbounds nuw i8, ptr %0, i64 5240
  store i32 -1, ptr %23, align 4, !tbaa !26
  %24 = getelementptr inbounds nuw i8, ptr %0, i64 5244
  store i32 -1, ptr %24, align 4, !tbaa !27
  %25 = getelementptr inbounds nuw i8, ptr %0, i64 5136
  store i64 0, ptr %25, align 8, !tbaa !28
  %26 = getelementptr inbounds nuw i8, ptr %0, i64 5256
  store ptr null, ptr %26, align 8, !tbaa !29
  %27 = getelementptr inbounds nuw i8, ptr %0, i64 5264
  store i32 0, ptr %27, align 8, !tbaa !30
  tail call void @Curl_ssl_free_certinfo(ptr noundef %0) #5
  ret i32 0
}